target datalayout = "e-m:e-p270:32:32-p271:32:32-p272:64:64-i64:64-i128:128-f80:128-n8:16:32:64-S128"
target triple = "x86_64-pc-linux-gnu"

%struct._GLFWlibrary = type { i32, %struct.GLFWallocator, %struct._GLFWplatform, %struct.anon, ptr, ptr, ptr, ptr, i32, i32, [16 x %struct._GLFWjoystick], ptr, i32, %struct._GLFWtls, %struct._GLFWtls, %struct._GLFWmutex, %struct.anon.8, %struct.anon.9, %struct.anon.10, %struct.anon.11, %struct.anon.12, %struct._GLFWlibraryWayland, %struct._GLFWlibraryX11, %struct._GLFWlibraryNull, %struct._GLFWlibraryGLX, %struct._GLFWlibraryLinux }
%struct.GLFWallocator = type { ptr, ptr, ptr, ptr }
%struct._GLFWplatform = type { i32, ptr, ptr, ptr, ptr, ptr, ptr, ptr, ptr, ptr, ptr, ptr, ptr, ptr, ptr, ptr, ptr, ptr, ptr, ptr, ptr, ptr, ptr, ptr, ptr, ptr, ptr, ptr, ptr, ptr, ptr, ptr, ptr, ptr, ptr, ptr, ptr, ptr, ptr, ptr, ptr, ptr, ptr, ptr, ptr, ptr, ptr, ptr, ptr, ptr, ptr, ptr, ptr, ptr, ptr, ptr, ptr, ptr, ptr, ptr, ptr, ptr, ptr, ptr, ptr, ptr, ptr, ptr, ptr, ptr, ptr, ptr }
%struct.anon = type { %struct._GLFWinitconfig, %struct._GLFWfbconfig, %struct._GLFWwndconfig, %struct._GLFWctxconfig, i32 }
%struct._GLFWinitconfig = type { i32, i32, i32, ptr, %struct.anon.0, %struct.anon.1, %struct.anon.2 }
%struct.anon.0 = type { i32, i32 }
%struct.anon.1 = type { i32 }
%struct.anon.2 = type { i32 }
%struct._GLFWfbconfig = type { i32, i32, i32, i32, i32, i32, i32, i32, i32, i32, i32, i32, i32, i32, i32, i32, i64 }
%struct._GLFWwndconfig = type { i32, i32, i32, i32, ptr, i32, i32, i32, i32, i32, i32, i32, i32, i32, i32, i32, i32, %struct.anon.3, %struct.anon.4, %struct.anon.5, %struct.anon.6 }
%struct.anon.3 = type { [256 x i8] }
%struct.anon.4 = type { [256 x i8], [256 x i8] }
%struct.anon.5 = type { i32, i32 }
%struct.anon.6 = type { [256 x i8] }
%struct._GLFWctxconfig = type { i32, i32, i32, i32, i32, i32, i32, i32, i32, i32, ptr, %struct.anon.7 }
%struct.anon.7 = type { i32 }
%struct._GLFWjoystick = type { i32, i32, ptr, i32, ptr, i32, ptr, i32, [128 x i8], ptr, [33 x i8], ptr, %struct._GLFWjoystickLinux }
%struct._GLFWjoystickLinux = type { i32, [4096 x i8], [512 x i32], [64 x i32], [64 x %struct.input_absinfo], [4 x [2 x i32]] }
%struct.input_absinfo = type { i32, i32, i32, i32, i32, i32 }
%struct._GLFWtls = type { %struct._GLFWtlsPOSIX }
%struct._GLFWtlsPOSIX = type { i32, i32 }
%struct._GLFWmutex = type { %struct._GLFWmutexPOSIX }
%struct._GLFWmutexPOSIX = type { i32, %union.pthread_mutex_t }
%union.pthread_mutex_t = type { %struct.__pthread_mutex_s }
%struct.__pthread_mutex_s = type { i32, i32, i32, i32, i32, i16, i16, %struct.__pthread_internal_list }
%struct.__pthread_internal_list = type { ptr, ptr }
%struct.anon.8 = type { i64, %struct._GLFWtimerPOSIX }
%struct._GLFWtimerPOSIX = type { i32, i64 }
%struct.anon.9 = type { i32, ptr, i32, i32, i32, i32, i32, i32, i32, i32, i32, i32, i32, i32, i32, i32, i32, i32, i32, i32, ptr, ptr, ptr, ptr, ptr, ptr, ptr, ptr, ptr, ptr, ptr, ptr, ptr, ptr, ptr, ptr, ptr, ptr, ptr }
%struct.anon.10 = type { ptr, ptr, ptr, ptr, ptr, ptr, ptr, ptr }
%struct.anon.11 = type { i32, ptr, [2 x ptr], ptr, i32, i32, i32, i32, i32, i32, i32 }
%struct.anon.12 = type { ptr, ptr }
%struct._GLFWlibraryWayland = type { ptr, ptr, ptr, ptr, ptr, ptr, ptr, ptr, ptr, ptr, ptr, ptr, ptr, ptr, ptr, ptr, ptr, ptr, ptr, i32, ptr, ptr, ptr, ptr, i32, ptr, ptr, ptr, ptr, ptr, i32, i32, i32, i32, i32, i32, i32, ptr, [256 x i16], [349 x i16], [349 x [5 x i8]], %struct.anon.13, ptr, ptr, %struct.anon.14, %struct.anon.15, %struct.anon.16, %struct.anon.17 }
%struct.anon.13 = type { ptr, ptr, ptr, ptr, ptr, i32, i32, i32, i32, i32, i32, i32, ptr, ptr, ptr, ptr, ptr, ptr, ptr, ptr, ptr, ptr, ptr, ptr, ptr, ptr, ptr, ptr, ptr, ptr, ptr, ptr }
%struct.anon.14 = type { ptr, ptr, ptr, ptr, ptr, ptr, ptr, ptr, ptr, ptr, ptr, ptr, ptr, ptr, ptr, ptr, ptr, ptr, ptr, ptr }
%struct.anon.15 = type { ptr, ptr, ptr, ptr, ptr }
%struct.anon.16 = type { ptr, ptr, ptr, ptr }
%struct.anon.17 = type { ptr, ptr, ptr, i32, ptr, ptr, ptr, ptr, ptr, ptr, ptr, ptr, ptr, ptr, ptr, ptr, ptr, ptr, ptr, ptr, ptr, ptr, ptr, ptr, ptr, ptr, ptr, ptr, ptr }
%struct._GLFWlibraryX11 = type { ptr, i32, i64, float, float, i64, i64, i32, ptr, ptr, i32, ptr, ptr, [349 x [5 x i8]], [256 x i16], [349 x i16], double, double, ptr, [2 x i32], i64, i64, i64, i64, i64, i64, i64, i64, i64, i64, i64, i64, i64, i64, i64, i64, i64, i64, i64, i64, i64, i64, i64, i64, i64, i64, i64, i64, i64, i64, i64, i64, i64, i64, i64, i64, i64, i64, i64, i64, i64, i64, i64, i64, i64, i64, i64, i64, i64, i64, %struct.anon.18, %struct.anon.19, %struct.anon.20, %struct.anon.21, %struct.anon.22, %struct.anon.23, %struct.anon.24, %struct.anon.25, %struct.anon.26, %struct.anon.27, %struct.anon.28, %struct.anon.29, %struct.anon.30 }
%struct.anon.18 = type { ptr, i32, ptr, ptr, ptr, ptr, ptr, ptr, ptr, ptr, ptr, ptr, ptr, ptr, ptr, ptr, ptr, ptr, ptr, ptr, ptr, ptr, ptr, ptr, ptr, ptr, ptr, ptr, ptr, ptr, ptr, ptr, ptr, ptr, ptr, ptr, ptr, ptr, ptr, ptr, ptr, ptr, ptr, ptr, ptr, ptr, ptr, ptr, ptr, ptr, ptr, ptr, ptr, ptr, ptr, ptr, ptr, ptr, ptr, ptr, ptr, ptr, ptr, ptr, ptr, ptr, ptr, ptr, ptr, ptr, ptr, ptr, ptr, ptr, ptr, ptr, ptr, ptr, ptr, ptr, ptr, ptr, ptr, ptr, ptr, ptr, ptr, ptr }
%struct.anon.19 = type { ptr, ptr, ptr, ptr }
%struct.anon.20 = type { i32, ptr, i32, i32, i32, i32, i32, i32, ptr, ptr, ptr, ptr, ptr, ptr, ptr, ptr, ptr, ptr, ptr, ptr, ptr, ptr, ptr, ptr, ptr }
%struct.anon.21 = type { i32, i32, i32, i32, i32, i32, i32, i32, ptr, ptr, ptr, ptr, ptr, ptr, ptr, ptr, ptr }
%struct.anon.22 = type { i32, i32, i32, i32, i32 }
%struct.anon.23 = type { i32, i64, i64 }
%struct.anon.24 = type { ptr, ptr, ptr, ptr, ptr, ptr, ptr }
%struct.anon.25 = type { i32, ptr, i32, i32, ptr, ptr, ptr }
%struct.anon.26 = type { ptr, ptr }
%struct.anon.27 = type { i32, ptr, i32, i32, ptr, ptr, ptr, ptr }
%struct.anon.28 = type { i32, ptr, i32, i32, i32, i32, i32, ptr, ptr }
%struct.anon.29 = type { i32, ptr, i32, i32, i32, i32, ptr, ptr, ptr }
%struct.anon.30 = type { i32, ptr, i32, i32, i32, i32, ptr, ptr, ptr, ptr }
%struct._GLFWlibraryNull = type { i32, i32, ptr, ptr, [121 x i16], [349 x i8] }
%struct._GLFWlibraryGLX = type { i32, i32, i32, i32, ptr, ptr, ptr, ptr, ptr, ptr, ptr, ptr, ptr, ptr, ptr, ptr, ptr, ptr, ptr, ptr, ptr, ptr, ptr, ptr, i32, i32, i32, i32, i32, i32, i32, i32, i32, i32, i32, i32 }
%struct._GLFWlibraryLinux = type { i32, i32, %struct.re_pattern_buffer, i32, i32 }
%struct.re_pattern_buffer = type { ptr, i64, i64, i64, ptr, ptr, i64, i8 }
%struct._GLFWmonitor = type { [128 x i8], ptr, i32, i32, ptr, ptr, i32, %struct.GLFWvidmode, %struct.GLFWgammaramp, %struct.GLFWgammaramp, %struct._GLFWmonitorWayland, %struct._GLFWmonitorX11, %struct._GLFWmonitorNull }
%struct.GLFWvidmode = type { i32, i32, i32, i32, i32, i32 }
%struct.GLFWgammaramp = type { ptr, ptr, ptr, i32 }
%struct._GLFWmonitorWayland = type { ptr, i32, i32, i32, i32, i32 }
%struct._GLFWmonitorX11 = type { i64, i64, i64, i32 }
%struct._GLFWmonitorNull = type { %struct.GLFWgammaramp }
%struct._XRRCrtcGamma = type { i32, ptr, ptr, ptr }

@_glfw = external global %struct._GLFWlibrary, align 8
@.str.2 = private unnamed_addr constant [47 x i8] c"X11: Gamma ramp access not supported by server\00", align 1
@.str.3 = private unnamed_addr constant [50 x i8] c"X11: Gamma ramp size must match current ramp size\00", align 1

; Function Attrs: nounwind uwtable
define hidden void @_glfwSetGammaRampX11(ptr noundef %0, ptr noundef %1) #0 {
  %3 = alloca ptr, align 8
  %4 = alloca ptr, align 8
  %5 = alloca ptr, align 8
  store ptr %0, ptr %3, align 8, !tbaa !121
  store ptr %1, ptr %4, align 8, !tbaa !198
  %6 = load i32, ptr getelementptr inbounds nuw (%struct._GLFWlibraryX11, ptr getelementptr inbounds nuw (%struct._GLFWlibrary, ptr @_glfw, i32 0, i32 22), i32 0, i32 72), align 8, !tbaa !3
  %7 = icmp ne i32 %6, 0
  br i1 %7, label %8, label %72

8:                                                ; preds = %2
  %9 = load i32, ptr getelementptr inbounds nuw (%struct.anon.20, ptr getelementptr inbounds nuw (%struct._GLFWlibraryX11, ptr getelementptr inbounds nuw (%struct._GLFWlibrary, ptr @_glfw, i32 0, i32 22), i32 0, i32 72), i32 0, i32 6), align 8, !tbaa !200
  %10 = icmp ne i32 %9, 0
  br i1 %10, label %72, label %11

11:                                               ; preds = %8
  %12 = load ptr, ptr getelementptr inbounds nuw (%struct.anon.20, ptr getelementptr inbounds nuw (%struct._GLFWlibraryX11, ptr getelementptr inbounds nuw (%struct._GLFWlibrary, ptr @_glfw, i32 0, i32 22), i32 0, i32 72), i32 0, i32 14), align 8, !tbaa !201
  %13 = load ptr, ptr getelementptr inbounds nuw (%struct._GLFWlibrary, ptr @_glfw, i32 0, i32 22), align 8, !tbaa !98
  %14 = load ptr, ptr %3, align 8, !tbaa !121
  %15 = getelementptr inbounds nuw %struct._GLFWmonitor, ptr %14, i32 0, i32 11
  %16 = getelementptr inbounds nuw %struct._GLFWmonitorX11, ptr %15, i32 0, i32 1
  %17 = load i64, ptr %16, align 8, !tbaa !143
  %18 = call i32 %12(ptr noundef %13, i64 noundef %17)
  %19 = load ptr, ptr %4, align 8, !tbaa !198
  %20 = getelementptr inbounds nuw %struct.GLFWgammaramp, ptr %19, i32 0, i32 3
  %21 = load i32, ptr %20, align 8, !tbaa !216
  %22 = icmp ne i32 %18, %21
  br i1 %22, label %23, label %24

23:                                               ; preds = %11
  call void (i32, ptr, ...) @_glfwInputError(i32 noundef 65544, ptr noundef @.str.3)
  br label %94

24:                                               ; preds = %11
  call void @llvm.lifetime.start.p0(i64 8, ptr %5) #5
  %25 = load ptr, ptr getelementptr inbounds nuw (%struct.anon.20, ptr getelementptr inbounds nuw (%struct._GLFWlibraryX11, ptr getelementptr inbounds nuw (%struct._GLFWlibrary, ptr @_glfw, i32 0, i32 22), i32 0, i32 72), i32 0, i32 8), align 8, !tbaa !217
  %26 = load ptr, ptr %4, align 8, !tbaa !198
  %27 = getelementptr inbounds nuw %struct.GLFWgammaramp, ptr %26, i32 0, i32 3
  %28 = load i32, ptr %27, align 8, !tbaa !216
  %29 = call ptr %25(i32 noundef %28)
  store ptr %29, ptr %5, align 8, !tbaa !203
  %30 = load ptr, ptr %5, align 8, !tbaa !203
  %31 = getelementptr inbounds nuw %struct._XRRCrtcGamma, ptr %30, i32 0, i32 1
  %32 = load ptr, ptr %31, align 8, !tbaa !206
  %33 = load ptr, ptr %4, align 8, !tbaa !198
  %34 = getelementptr inbounds nuw %struct.GLFWgammaramp, ptr %33, i32 0, i32 0
  %35 = load ptr, ptr %34, align 8, !tbaa !205
  %36 = load ptr, ptr %4, align 8, !tbaa !198
  %37 = getelementptr inbounds nuw %struct.GLFWgammaramp, ptr %36, i32 0, i32 3
  %38 = load i32, ptr %37, align 8, !tbaa !216
  %39 = zext i32 %38 to i64
  %40 = mul i64 %39, 2
  call void @llvm.memcpy.p0.p0.i64(ptr align 2 %32, ptr align 2 %35, i64 %40, i1 false)
  %41 = load ptr, ptr %5, align 8, !tbaa !203
  %42 = getelementptr inbounds nuw %struct._XRRCrtcGamma, ptr %41, i32 0, i32 2
  %43 = load ptr, ptr %42, align 8, !tbaa !209
  %44 = load ptr, ptr %4, align 8, !tbaa !198
  %45 = getelementptr inbounds nuw %struct.GLFWgammaramp, ptr %44, i32 0, i32 1
  %46 = load ptr, ptr %45, align 8, !tbaa !208
  %47 = load ptr, ptr %4, align 8, !tbaa !198
  %48 = getelementptr inbounds nuw %struct.GLFWgammaramp, ptr %47, i32 0, i32 3
  %49 = load i32, ptr %48, align 8, !tbaa !216
  %50 = zext i32 %49 to i64
  %51 = mul i64 %50, 2
  call void @llvm.memcpy.p0.p0.i64(ptr align 2 %43, ptr align 2 %46, i64 %51, i1 false)
  %52 = load ptr, ptr %5, align 8, !tbaa !203
  %53 = getelementptr inbounds nuw %struct._XRRCrtcGamma, ptr %52, i32 0, i32 3
  %54 = load ptr, ptr %53, align 8, !tbaa !211
  %55 = load ptr, ptr %4, align 8, !tbaa !198
  %56 = getelementptr inbounds nuw %struct.GLFWgammaramp, ptr %55, i32 0, i32 2
  %57 = load ptr, ptr %56, align 8, !tbaa !210
  %58 = load ptr, ptr %4, align 8, !tbaa !198
  %59 = getelementptr inbounds nuw %struct.GLFWgammaramp, ptr %58, i32 0, i32 3
  %60 = load i32, ptr %59, align 8, !tbaa !216
  %61 = zext i32 %60 to i64
  %62 = mul i64 %61, 2
  call void @llvm.memcpy.p0.p0.i64(ptr align 2 %54, ptr align 2 %57, i64 %62, i1 false)
  %63 = load ptr, ptr getelementptr inbounds nuw (%struct.anon.20, ptr getelementptr inbounds nuw (%struct._GLFWlibraryX11, ptr getelementptr inbounds nuw (%struct._GLFWlibrary, ptr @_glfw, i32 0, i32 22), i32 0, i32 72), i32 0, i32 23), align 8, !tbaa !218
  %64 = load ptr, ptr getelementptr inbounds nuw (%struct._GLFWlibrary, ptr @_glfw, i32 0, i32 22), align 8, !tbaa !98
  %65 = load ptr, ptr %3, align 8, !tbaa !121
  %66 = getelementptr inbounds nuw %struct._GLFWmonitor, ptr %65, i32 0, i32 11
  %67 = getelementptr inbounds nuw %struct._GLFWmonitorX11, ptr %66, i32 0, i32 1
  %68 = load i64, ptr %67, align 8, !tbaa !143
  %69 = load ptr, ptr %5, align 8, !tbaa !203
  call void %63(ptr noundef %64, i64 noundef %68, ptr noundef %69)
  %70 = load ptr, ptr getelementptr inbounds nuw (%struct.anon.20, ptr getelementptr inbounds nuw (%struct._GLFWlibraryX11, ptr getelementptr inbounds nuw (%struct._GLFWlibrary, ptr @_glfw, i32 0, i32 22), i32 0, i32 72), i32 0, i32 10), align 8, !tbaa !212
  %71 = load ptr, ptr %5, align 8, !tbaa !203
  call void %70(ptr noundef %71)
  call void @llvm.lifetime.end.p0(i64 8, ptr %5) #5
  br label %94

72:                                               ; preds = %8, %2
  %73 = load i32, ptr getelementptr inbounds nuw (%struct._GLFWlibraryX11, ptr getelementptr inbounds nuw (%struct._GLFWlibrary, ptr @_glfw, i32 0, i32 22), i32 0, i32 79), align 8, !tbaa !213
  %74 = icmp ne i32 %73, 0
  br i1 %74, label %75, label %92

75:                                               ; preds = %72
  %76 = load ptr, ptr getelementptr inbounds nuw (%struct.anon.27, ptr getelementptr inbounds nuw (%struct._GLFWlibraryX11, ptr getelementptr inbounds nuw (%struct._GLFWlibrary, ptr @_glfw, i32 0, i32 22), i32 0, i32 79), i32 0, i32 6), align 8, !tbaa !219
  %77 = load ptr, ptr getelementptr inbounds nuw (%struct._GLFWlibrary, ptr @_glfw, i32 0, i32 22), align 8, !tbaa !98
  %78 = load i32, ptr getelementptr inbounds nuw (%struct._GLFWlibraryX11, ptr getelementptr inbounds nuw (%struct._GLFWlibrary, ptr @_glfw, i32 0, i32 22), i32 0, i32 1), align 8, !tbaa !160
  %79 = load ptr, ptr %4, align 8, !tbaa !198
  %80 = getelementptr inbounds nuw %struct.GLFWgammaramp, ptr %79, i32 0, i32 3
  %81 = load i32, ptr %80, align 8, !tbaa !216
  %82 = load ptr, ptr %4, align 8, !tbaa !198
  %83 = getelementptr inbounds nuw %struct.GLFWgammaramp, ptr %82, i32 0, i32 0
  %84 = load ptr, ptr %83, align 8, !tbaa !205
  %85 = load ptr, ptr %4, align 8, !tbaa !198
  %86 = getelementptr inbounds nuw %struct.GLFWgammaramp, ptr %85, i32 0, i32 1
  %87 = load ptr, ptr %86, align 8, !tbaa !208
  %88 = load ptr, ptr %4, align 8, !tbaa !198
  %89 = getelementptr inbounds nuw %struct.GLFWgammaramp, ptr %88, i32 0, i32 2
  %90 = load ptr, ptr %89, align 8, !tbaa !210
  %91 = call i32 %76(ptr noundef %77, i32 noundef %78, i32 noundef %81, ptr noundef %84, ptr noundef %87, ptr noundef %90)
  br label %93

92:                                               ; preds = %72
  call void (i32, ptr, ...) @_glfwInputError(i32 noundef 65544, ptr noundef @.str.2)
  br label %93

93:                                               ; preds = %92, %75
  br label %94

94:                                               ; preds = %23, %93, %24
  ret void
}