; Function Attrs: nounwind uwtable
define hidden void @_glfwSetGammaRampX11(ptr noundef readonly captures(none) %0, ptr noundef readonly captures(none) %1) local_unnamed_addr #0 {
  %3 = load i32, ptr getelementptr inbounds nuw (i8, ptr @_glfw, i64 142064), align 8, !tbaa !3
  %4 = icmp eq i32 %3, 0
  %5 = load i32, ptr getelementptr inbounds nuw (i8, ptr @_glfw, i64 142096), align 8
  %6 = icmp ne i32 %5, 0
  %or.cond = select i1 %4, i1 true, i1 %6
  br i1 %or.cond, label %43, label %7

7:                                                ; preds = %2
  %8 = load ptr, ptr getelementptr inbounds nuw (i8, ptr @_glfw, i64 142152), align 8, !tbaa !191
  %9 = load ptr, ptr getelementptr inbounds nuw (i8, ptr @_glfw, i64 137840), align 8, !tbaa !95
  %10 = getelementptr inbounds nuw i8, ptr %0, i64 296
  %11 = load i64, ptr %10, align 8, !tbaa !133
  %12 = tail call i32 %8(ptr noundef %9, i64 noundef %11) #9
  %13 = getelementptr inbounds nuw i8, ptr %1, i64 24
  %14 = load i32, ptr %13, align 8, !tbaa !204
  %.not = icmp eq i32 %12, %14
  br i1 %.not, label %16, label %15

15:                                               ; preds = %7
  tail call void (i32, ptr, ...) @_glfwInputError(i32 noundef 65544, ptr noundef nonnull @.str.3) #9
  br label %58

16:                                               ; preds = %7
  %17 = load ptr, ptr getelementptr inbounds nuw (i8, ptr @_glfw, i64 142104), align 8, !tbaa !205
  %18 = tail call ptr %17(i32 noundef %12) #9
  %19 = getelementptr inbounds nuw i8, ptr %18, i64 8
  %20 = load ptr, ptr %19, align 8, !tbaa !194
  %21 = load ptr, ptr %1, align 8, !tbaa !193
  %22 = load i32, ptr %13, align 8, !tbaa !204
  %23 = zext i32 %22 to i64
  %24 = shl nuw nsw i64 %23, 1
  tail call void @llvm.memcpy.p0.p0.i64(ptr align 2 %20, ptr align 2 %21, i64 %24, i1 false)
  %25 = getelementptr inbounds nuw i8, ptr %18, i64 16
  %26 = load ptr, ptr %25, align 8, !tbaa !197
  %27 = getelementptr inbounds nuw i8, ptr %1, i64 8
  %28 = load ptr, ptr %27, align 8, !tbaa !196
  %29 = load i32, ptr %13, align 8, !tbaa !204
  %30 = zext i32 %29 to i64
  %31 = shl nuw nsw i64 %30, 1
  tail call void @llvm.memcpy.p0.p0.i64(ptr align 2 %26, ptr align 2 %28, i64 %31, i1 false)
  %32 = getelementptr inbounds nuw i8, ptr %18, i64 24
  %33 = load ptr, ptr %32, align 8, !tbaa !199
  %34 = getelementptr inbounds nuw i8, ptr %1, i64 16
  %35 = load ptr, ptr %34, align 8, !tbaa !198
  %36 = load i32, ptr %13, align 8, !tbaa !204
  %37 = zext i32 %36 to i64
  %38 = shl nuw nsw i64 %37, 1
  tail call void @llvm.memcpy.p0.p0.i64(ptr align 2 %33, ptr align 2 %35, i64 %38, i1 false)
  %39 = load ptr, ptr getelementptr inbounds nuw (i8, ptr @_glfw, i64 142224), align 8, !tbaa !206
  %40 = load ptr, ptr getelementptr inbounds nuw (i8, ptr @_glfw, i64 137840), align 8, !tbaa !95
  %41 = load i64, ptr %10, align 8, !tbaa !133
  tail call void %39(ptr noundef %40, i64 noundef %41, ptr noundef %18) #9
  %42 = load ptr, ptr getelementptr inbounds nuw (i8, ptr @_glfw, i64 142120), align 8, !tbaa !200
  tail call void %42(ptr noundef %18) #9
  br label %58

43:                                               ; preds = %2
  %44 = load i32, ptr getelementptr inbounds nuw (i8, ptr @_glfw, i64 142512), align 8, !tbaa !201
  %.not20 = icmp eq i32 %44, 0
  br i1 %.not20, label %57, label %45

45:                                               ; preds = %43
  %46 = load ptr, ptr getelementptr inbounds nuw (i8, ptr @_glfw, i64 142552), align 8, !tbaa !207
  %47 = load ptr, ptr getelementptr inbounds nuw (i8, ptr @_glfw, i64 137840), align 8, !tbaa !95
  %48 = load i32, ptr getelementptr inbounds nuw (i8, ptr @_glfw, i64 137848), align 8, !tbaa !149
  %49 = getelementptr inbounds nuw i8, ptr %1, i64 24
  %50 = load i32, ptr %49, align 8, !tbaa !204
  %51 = load ptr, ptr %1, align 8, !tbaa !193
  %52 = getelementptr inbounds nuw i8, ptr %1, i64 8
  %53 = load ptr, ptr %52, align 8, !tbaa !196
  %54 = getelementptr inbounds nuw i8, ptr %1, i64 16
  %55 = load ptr, ptr %54, align 8, !tbaa !198
  %56 = tail call i32 %46(ptr noundef %47, i32 noundef %48, i32 noundef %50, ptr noundef %51, ptr noundef %53, ptr noundef %55) #9
  br label %58

57:                                               ; preds = %43
  tail call void (i32, ptr, ...) @_glfwInputError(i32 noundef 65544, ptr noundef nonnull @.str.2) #9
  br label %58

58:                                               ; preds = %45, %57, %16, %15
  ret void
}